Certificate:
    Data:
        Version: 3 (0x2)
        Serial Number: 1 (0x1)
    Signature Algorithm: sha256WithRSAEncryption
        Issuer: C=FR, ST=Radius, L=Somewhere, O=Example Inc./emailAddress=admin@example.com, CN=Example Certificate Authority
        Validity
            Not Before: May 31 20:08:36 2015 GMT
            Not After : Jul 30 20:08:36 2015 GMT
        Subject: C=FR, ST=Radius, O=Example Inc., CN=Example Server Certificate/emailAddress=admin@example.com
        Subject Public Key Info:
            Public Key Algorithm: rsaEncryption
                Public-Key: (2048 bit)
                Modulus:
                    00:a4:f1:76:b6:29:41:76:d4:9d:7d:7d:c0:2f:eb:
                    3f:0a:41:b4:2a:7a:1f:8d:48:e4:0a:4a:b2:66:a3:
                    50:85:88:a0:7e:64:10:68:ee:5c:7e:45:af:e2:ae:
                    b5:20:d3:8a:89:0a:75:f8:cc:8b:6a:30:54:27:0e:
                    6c:4a:b3:ca:ce:a0:6a:34:2c:97:5a:3f:80:a6:74:
                    f1:07:57:55:e8:b3:fc:94:9d:88:11:0c:c8:21:10:
                    19:c8:21:80:8c:f0:73:2b:9d:a4:77:67:22:f1:f3:
                    02:ea:52:bc:c2:b6:26:fb:1a:53:c0:3f:f6:3d:e8:
                    90:34:51:c3:08:02:42:3d:c7:8b:80:81:79:b6:d5:
                    ac:1c:52:23:38:0d:ae:28:e2:c6:01:11:9a:f8:9e:
                    fb:0f:5d:3b:5e:29:61:b4:37:f4:92:06:b7:c5:20:
                    1e:04:d7:6b:da:cd:ba:3d:8c:0b:f0:e4:55:87:0b:
                    1d:91:ee:2f:f0:cd:92:09:2e:5a:c4:8a:b7:f5:ed:
                    e3:48:30:7b:1e:f1:aa:c6:6f:7e:a8:6c:d4:85:3b:
                    17:40:e3:15:7f:e2:f3:d7:94:b1:3b:b7:4c:c8:db:
                    ed:95:1c:64:d3:c6:54:3e:4c:eb:36:05:21:e4:ba:
                    c9:ba:82:4b:cd:6f:c8:b0:b2:4e:fb:1c:a8:75:8e:
                    fb:6d
                Exponent: 65537 (0x10001)
        X509v3 extensions:
            X509v3 Extended Key Usage: 
                TLS Web Server Authentication
            X509v3 CRL Distribution Points: 

                Full Name:
                  URI:http://www.example.com/example_ca.crl

    Signature Algorithm: sha256WithRSAEncryption
         df:c5:95:00:00:0d:bb:aa:a1:0b:9c:6f:6c:6d:13:ef:c7:95:
         09:b4:47:e3:75:7b:49:58:2a:05:82:6e:b5:8d:b9:fa:4c:91:
         b8:7d:0e:92:0f:08:fb:22:4c:2f:fa:07:02:a4:eb:59:fc:32:
         88:8d:8c:54:31:fe:18:d8:33:63:3b:ad:4c:78:83:c7:67:98:
         46:5e:41:90:33:c1:4e:c7:08:79:ad:13:31:08:a4:5b:78:34:
         2a:24:74:56:8a:34:dd:44:4d:83:61:fe:68:47:4b:92:5b:3e:
         21:96:2d:a4:35:43:ba:e5:2e:e2:16:3f:5b:0d:d7:56:6e:06:
         7c:8d:29:90:ee:8a:21:f1:1f:cf:0a:2b:d1:69:66:e0:ea:1b:
         3c:25:97:27:04:38:fa:be:0a:7b:93:bc:55:f4:a4:67:b4:08:
         ca:3b:ab:0d:9b:6d:36:63:5b:b9:fa:e3:c5:c8:6a:f0:44:f6:
         79:57:c0:e5:57:62:f9:87:a5:28:e7:c5:e8:d9:04:45:d9:1e:
         b1:e5:17:90:ef:76:fa:96:ef:44:0e:be:d3:4c:04:af:9f:c7:
         3a:e6:1a:a7:13:c1:f9:d5:6a:20:b8:21:7b:03:65:b5:05:cd:
         2a:31:18:f0:45:04:13:8a:a6:88:68:7d:8c:b3:ae:e9:70:02:
         70:0a:01:4c
-----BEGIN CERTIFICATE-----
MIID2jCCAsKgAwIBAgIBATANBgkqhkiG9w0BAQsFADCBkzELMAkGA1UEBhMCRlIx
DzANBgNVBAgMBlJhZGl1czESMBAGA1UEBwwJU29tZXdoZXJlMRUwEwYDVQQKDAxF
eGFtcGxlIEluYy4xIDAeBgkqhkiG9w0BCQEWEWFkbWluQGV4YW1wbGUuY29tMSYw
JAYDVQQDDB1FeGFtcGxlIENlcnRpZmljYXRlIEF1dGhvcml0eTAeFw0xNTA1MzEy
MDA4MzZaFw0xNTA3MzAyMDA4MzZaMHwxCzAJBgNVBAYTAkZSMQ8wDQYDVQQIDAZS
YWRpdXMxFTATBgNVBAoMDEV4YW1wbGUgSW5jLjEjMCEGA1UEAwwaRXhhbXBsZSBT
ZXJ2ZXIgQ2VydGlmaWNhdGUxIDAeBgkqhkiG9w0BCQEWEWFkbWluQGV4YW1wbGUu
Y29tMIIBIjANBgkqhkiG9w0BAQEFAAOCAQ8AMIIBCgKCAQEApPF2tilBdtSdfX3A
L+s/CkG0KnofjUjkCkqyZqNQhYigfmQQaO5cfkWv4q61INOKiQp1+MyLajBUJw5s
SrPKzqBqNCyXWj+ApnTxB1dV6LP8lJ2IEQzIIRAZyCGAjPBzK52kd2ci8fMC6lK8
wrYm+xpTwD/2PeiQNFHDCAJCPceLgIF5ttWsHFIjOA2uKOLGARGa+J77D107Xilh
tDf0kga3xSAeBNdr2s26PYwL8ORVhwsdke4v8M2SCS5axIq39e3jSDB7HvGqxm9+
qGzUhTsXQOMVf+Lz15SxO7dMyNvtlRxk08ZUPkzrNgUh5LrJuoJLzW/IsLJO+xyo
dY77bQIDAQABo08wTTATBgNVHSUEDDAKBggrBgEFBQcDATA2BgNVHR8ELzAtMCug
KaAnhiVodHRwOi8vd3d3LmV4YW1wbGUuY29tL2V4YW1wbGVfY2EuY3JsMA0GCSqG
SIb3DQEBCwUAA4IBAQDfxZUAAA27qqELnG9sbRPvx5UJtEfjdXtJWCoFgm61jbn6
TJG4fQ6SDwj7Ikwv+gcCpOtZ/DKIjYxUMf4Y2DNjO61MeIPHZ5hGXkGQM8FOxwh5
rRMxCKRbeDQqJHRWijTdRE2DYf5oR0uSWz4hli2kNUO65S7iFj9bDddWbgZ8jSmQ
7ooh8R/PCivRaWbg6hs8JZcnBDj6vgp7k7xV9KRntAjKO6sNm202Y1u5+uPFyGrw
RPZ5V8DlV2L5h6Uo58Xo2QRF2R6x5ReQ73b6lu9EDr7TTASvn8c65hqnE8H51Wog
uCF7A2W1Bc0qMRjwRQQTiqaIaH2Ms67pcAJwCgFM
-----END CERTIFICATE-----
