Certificate:
    Data:
        Version: 3 (0x2)
        Serial Number: 2 (0x2)
    Signature Algorithm: sha256WithRSAEncryption
        Issuer: C=FR, ST=Radius, L=Somewhere, O=Example Inc./emailAddress=admin@example.com, CN=Example Certificate Authority
        Validity
            Not Before: May 31 20:08:36 2015 GMT
            Not After : Jul 30 20:08:36 2015 GMT
        Subject: C=FR, ST=Radius, O=Example Inc., CN=user@example.com/emailAddress=user@example.com
        Subject Public Key Info:
            Public Key Algorithm: rsaEncryption
                Public-Key: (2048 bit)
                Modulus:
                    00:c0:28:47:14:c2:98:94:52:fb:b7:60:7f:27:1c:
                    f1:17:ba:7e:49:21:4e:cc:15:a3:2e:80:06:20:21:
                    e4:13:cb:21:5b:a9:d0:b3:94:5c:e9:3c:fa:d1:f5:
                    43:18:4f:40:c0:65:55:fd:41:a5:b9:fb:4d:2f:a1:
                    89:c2:f9:9d:d6:28:5c:f7:9e:37:49:da:2e:83:98:
                    76:66:ea:de:f2:a7:b6:1b:38:7c:1b:12:fa:31:66:
                    24:6c:9c:5a:82:37:00:a8:cc:10:d1:8a:33:6e:73:
                    54:ce:12:43:66:37:9e:7b:3b:41:16:f1:db:9c:78:
                    6c:53:57:10:78:2b:1c:ff:44:6e:09:17:97:8b:6c:
                    b6:23:10:43:e2:e2:a3:6d:9e:df:72:e2:38:85:38:
                    1e:0b:bc:c9:4d:47:eb:07:ef:96:9b:e0:1c:41:6a:
                    f3:fd:a3:41:14:7b:1d:77:ab:ff:a0:81:34:9e:03:
                    6d:91:25:bc:a1:9b:6b:36:26:46:ac:b2:5b:00:4f:
                    86:89:61:0d:36:95:67:ed:33:3a:3e:9b:46:79:50:
                    6f:a3:47:39:7d:1c:52:19:e2:1a:20:79:49:9f:30:
                    af:26:08:b6:2e:2d:71:e0:8e:b7:4e:3d:cd:f5:a2:
                    bb:8d:91:43:56:f4:64:37:c2:4a:53:3e:6b:e3:17:
                    bd:f3
                Exponent: 65537 (0x10001)
        X509v3 extensions:
            X509v3 Extended Key Usage: 
                TLS Web Client Authentication
            X509v3 CRL Distribution Points: 

                Full Name:
                  URI:http://www.example.com/example_ca.crl

    Signature Algorithm: sha256WithRSAEncryption
         73:d0:94:bb:c7:b9:99:8e:c3:56:da:b1:08:54:7a:0f:0f:e3:
         7d:97:e1:0a:83:6c:0a:4d:fd:71:dd:d0:91:e6:71:d1:4e:a0:
         8b:da:8b:81:60:f4:2f:8b:71:6d:83:af:99:dc:22:9d:7c:04:
         75:9a:7d:f2:03:ce:86:cf:3b:9f:89:3a:b2:23:8d:6c:d4:54:
         57:23:98:89:cc:5a:a0:2f:90:0a:a5:de:48:7a:27:b6:57:cc:
         6e:b9:d0:ad:fc:f7:4b:ca:31:cf:61:27:04:a0:9a:6d:46:89:
         0a:82:c7:b8:22:2a:be:af:1b:91:fd:55:17:aa:2f:27:78:81:
         a0:7a:68:54:28:38:be:d4:81:58:a9:05:0a:9d:bc:f6:9f:50:
         f6:ef:73:bd:46:6f:9b:57:29:5f:21:dc:91:89:b3:90:78:01:
         5c:15:1f:e4:01:94:2d:8f:de:b9:d4:46:f9:d6:e1:56:79:dd:
         ad:8c:e1:40:6b:5e:0e:ba:43:eb:df:85:ab:48:03:d2:a8:93:
         df:65:46:ea:41:fb:94:b3:a2:82:92:67:3c:f3:10:1f:d2:dd:
         8a:75:04:2e:f8:19:bb:9b:ef:9b:73:5a:63:a9:43:da:94:d6:
         18:9c:2f:11:49:88:ef:35:61:a6:c0:24:f4:0c:9b:1c:c4:6b:
         6b:33:32:cc
-----BEGIN CERTIFICATE-----
MIIDzzCCAregAwIBAgIBAjANBgkqhkiG9w0BAQsFADCBkzELMAkGA1UEBhMCRlIx
DzANBgNVBAgMBlJhZGl1czESMBAGA1UEBwwJU29tZXdoZXJlMRUwEwYDVQQKDAxF
eGFtcGxlIEluYy4xIDAeBgkqhkiG9w0BCQEWEWFkbWluQGV4YW1wbGUuY29tMSYw
JAYDVQQDDB1FeGFtcGxlIENlcnRpZmljYXRlIEF1dGhvcml0eTAeFw0xNTA1MzEy
MDA4MzZaFw0xNTA3MzAyMDA4MzZaMHExCzAJBgNVBAYTAkZSMQ8wDQYDVQQIDAZS
YWRpdXMxFTATBgNVBAoMDEV4YW1wbGUgSW5jLjEZMBcGA1UEAwwQdXNlckBleGFt
cGxlLmNvbTEfMB0GCSqGSIb3DQEJARYQdXNlckBleGFtcGxlLmNvbTCCASIwDQYJ
KoZIhvcNAQEBBQADggEPADCCAQoCggEBAMAoRxTCmJRS+7dgfycc8Re6fkkhTswV
oy6ABiAh5BPLIVup0LOUXOk8+tH1QxhPQMBlVf1Bpbn7TS+hicL5ndYoXPeeN0na
LoOYdmbq3vKnths4fBsS+jFmJGycWoI3AKjMENGKM25zVM4SQ2Y3nns7QRbx25x4
bFNXEHgrHP9EbgkXl4tstiMQQ+Lio22e33LiOIU4Hgu8yU1H6wfvlpvgHEFq8/2j
QRR7HXer/6CBNJ4DbZElvKGbazYmRqyyWwBPholhDTaVZ+0zOj6bRnlQb6NHOX0c
UhniGiB5SZ8wryYIti4tceCOt049zfWiu42RQ1b0ZDfCSlM+a+MXvfMCAwEAAaNP
ME0wEwYDVR0lBAwwCgYIKwYBBQUHAwIwNgYDVR0fBC8wLTAroCmgJ4YlaHR0cDov
L3d3dy5leGFtcGxlLmNvbS9leGFtcGxlX2NhLmNybDANBgkqhkiG9w0BAQsFAAOC
AQEAc9CUu8e5mY7DVtqxCFR6Dw/jfZfhCoNsCk39cd3QkeZx0U6gi9qLgWD0L4tx
bYOvmdwinXwEdZp98gPOhs87n4k6siONbNRUVyOYicxaoC+QCqXeSHontlfMbrnQ
rfz3S8oxz2EnBKCabUaJCoLHuCIqvq8bkf1VF6ovJ3iBoHpoVCg4vtSBWKkFCp28
9p9Q9u9zvUZvm1cpXyHckYmzkHgBXBUf5AGULY/eudRG+dbhVnndrYzhQGteDrpD
69+Fq0gD0qiT32VG6kH7lLOigpJnPPMQH9LdinUELvgZu5vvm3NaY6lD2pTWGJwv
EUmI7zVhpsAk9AybHMRrazMyzA==
-----END CERTIFICATE-----
